target datalayout = "e-m:e-p270:32:32-p271:32:32-p272:64:64-i64:64-i128:128-f80:128-n8:16:32:64-S128"
target triple = "x86_64-unknown-linux-gnu"

%"class.std::vector.0" = type { %"struct.std::_Vector_base.1" }
%"struct.std::_Vector_base.1" = type { %"struct.std::_Vector_base<std::__cxx11::basic_string<char>, std::allocator<std::__cxx11::basic_string<char>>>::_Vector_impl" }
%"struct.std::_Vector_base<std::__cxx11::basic_string<char>, std::allocator<std::__cxx11::basic_string<char>>>::_Vector_impl" = type { %"struct.std::_Vector_base<std::__cxx11::basic_string<char>, std::allocator<std::__cxx11::basic_string<char>>>::_Vector_impl_data" }
%"struct.std::_Vector_base<std::__cxx11::basic_string<char>, std::allocator<std::__cxx11::basic_string<char>>>::_Vector_impl_data" = type { ptr, ptr, ptr }
%"class.facebook::velox::type::fbhive::HiveTypeParser" = type { %"class.facebook::velox::type::TypeParser", %"class.std::vector", %"class.folly::Range" }
%"class.facebook::velox::type::TypeParser" = type { ptr }
%"class.std::vector" = type { %"struct.std::_Vector_base" }
%"struct.std::_Vector_base" = type { %"struct.std::_Vector_base<std::unique_ptr<facebook::velox::type::fbhive::TokenMetadata>, std::allocator<std::unique_ptr<facebook::velox::type::fbhive::TokenMetadata>>>::_Vector_impl" }
%"struct.std::_Vector_base<std::unique_ptr<facebook::velox::type::fbhive::TokenMetadata>, std::allocator<std::unique_ptr<facebook::velox::type::fbhive::TokenMetadata>>>::_Vector_impl" = type { %"struct.std::_Vector_base<std::unique_ptr<facebook::velox::type::fbhive::TokenMetadata>, std::allocator<std::unique_ptr<facebook::velox::type::fbhive::TokenMetadata>>>::_Vector_impl_data" }
%"struct.std::_Vector_base<std::unique_ptr<facebook::velox::type::fbhive::TokenMetadata>, std::allocator<std::unique_ptr<facebook::velox::type::fbhive::TokenMetadata>>>::_Vector_impl_data" = type { ptr, ptr, ptr }
%"class.folly::Range" = type { ptr, ptr }
%"struct.facebook::velox::type::fbhive::Token" = type { ptr, %"class.folly::Range" }
%"struct.facebook::velox::type::fbhive::TokenMetadata" = type <{ i32, i8, [3 x i8], %"class.std::vector.0", i8, [7 x i8] }>
%"struct.facebook::velox::type::fbhive::TokenAndRemaining" = type { %"struct.facebook::velox::type::fbhive::Token", %"class.folly::Range" }

; Function Attrs: mustprogress nounwind uwtable
define noundef i32 @_ZNK8facebook5velox4type6fbhive5Token9tokenTypeEv(ptr noundef nonnull align 8 dereferenceable(24) %this) #1 align 2 {
entry:
  %this.addr = alloca ptr, align 8
  store ptr %this, ptr %this.addr, align 8
  %this1 = load ptr, ptr %this.addr, align 8
  %metadata = getelementptr inbounds %"struct.facebook::velox::type::fbhive::Token", ptr %this1, i32 0, i32 0
  %0 = load ptr, ptr %metadata, align 8
  %tokenType = getelementptr inbounds %"struct.facebook::velox::type::fbhive::TokenMetadata", ptr %0, i32 0, i32 0
  %1 = load i32, ptr %tokenType, align 8
  ret i32 %1
}

; Function Attrs: mustprogress uwtable
define noundef i32 @_ZNK8facebook5velox4type6fbhive14HiveTypeParser9lookAheadEv(ptr noundef nonnull align 8 dereferenceable(48) %this) #0 align 2 {
entry:
  %this.addr = alloca ptr, align 8
  %ref.tmp = alloca %"struct.facebook::velox::type::fbhive::TokenAndRemaining", align 8
  %agg.tmp = alloca %"class.folly::Range", align 8
  store ptr %this, ptr %this.addr, align 8
  %this1 = load ptr, ptr %this.addr, align 8
  %remaining_ = getelementptr inbounds %"class.facebook::velox::type::fbhive::HiveTypeParser", ptr %this1, i32 0, i32 2
  call void @llvm.memcpy.p0.p0.i64(ptr align 8 %agg.tmp, ptr align 8 %remaining_, i64 16, i1 false)
  %0 = getelementptr inbounds { ptr, ptr }, ptr %agg.tmp, i32 0, i32 0
  %1 = load ptr, ptr %0, align 8
  %2 = getelementptr inbounds { ptr, ptr }, ptr %agg.tmp, i32 0, i32 1
  %3 = load ptr, ptr %2, align 8
  call void @_ZNK8facebook5velox4type6fbhive14HiveTypeParser9nextTokenEN5folly5RangeIPKcEEb(ptr sret(%"struct.facebook::velox::type::fbhive::TokenAndRemaining") align 8 %ref.tmp, ptr noundef nonnull align 8 dereferenceable(48) %this1, ptr %1, ptr %3, i1 noundef zeroext false)
  %call = call noundef i32 @_ZNK8facebook5velox4type6fbhive5Token9tokenTypeEv(ptr noundef nonnull align 8 dereferenceable(24) %ref.tmp)
  ret i32 %call
}