; Function Attrs: mustprogress uwtable
define noundef i32 @_ZNK8facebook5velox4type6fbhive14HiveTypeParser9lookAheadEv(ptr nocapture noundef nonnull readonly align 8 dereferenceable(48) %this) local_unnamed_addr #0 align 2 {
entry:
  %ref.tmp = alloca %"struct.facebook::velox::type::fbhive::TokenAndRemaining", align 8
  %remaining_ = getelementptr inbounds i8, ptr %this, i64 32
  %agg.tmp.sroa.0.0.copyload = load ptr, ptr %remaining_, align 8
  %agg.tmp.sroa.2.0.remaining_.sroa_idx = getelementptr inbounds i8, ptr %this, i64 40
  %agg.tmp.sroa.2.0.copyload = load ptr, ptr %agg.tmp.sroa.2.0.remaining_.sroa_idx, align 8
  call void @_ZNK8facebook5velox4type6fbhive14HiveTypeParser9nextTokenEN5folly5RangeIPKcEEb(ptr nonnull sret(%"struct.facebook::velox::type::fbhive::TokenAndRemaining") align 8 %ref.tmp, ptr noundef nonnull align 8 dereferenceable(48) %this, ptr %agg.tmp.sroa.0.0.copyload, ptr %agg.tmp.sroa.2.0.copyload, i1 noundef zeroext false)
  %0 = load ptr, ptr %ref.tmp, align 8
  %1 = load i32, ptr %0, align 8
  ret i32 %1
}